target datalayout = "e-m:e-p270:32:32-p271:32:32-p272:64:64-i64:64-i128:128-f80:128-n8:16:32:64-S128"
target triple = "x86_64-pc-linux-gnu"

%"class.ThreadsList::Iterator" = type { ptr }
%class.ThreadsList = type { i32, i32, ptr, ptr, i64 }

@LockingMode = external global i32, align 4
@PrefetchScanIntervalInBytes = external global i64, align 8

; Function Attrs: mustprogress nounwind uwtable
define linkonce_odr hidden void @_ZNK11ThreadsList8Iterator16assert_same_listES0_(ptr noundef nonnull align 8 dereferenceable(8) %0, ptr %1) #1 comdat align 2 {
  %3 = alloca %"class.ThreadsList::Iterator", align 8
  %4 = alloca ptr, align 8
  %5 = getelementptr inbounds %"class.ThreadsList::Iterator", ptr %3, i32 0, i32 0
  store ptr %1, ptr %5, align 8
  store ptr %0, ptr %4, align 8
  ret void
}

; Function Attrs: mustprogress nounwind uwtable
define linkonce_odr hidden noundef i32 @_ZN11ThreadsList8Iterator11check_indexEPS_j(ptr noundef %0, i32 noundef %1) #1 comdat align 2 {
  %3 = alloca ptr, align 8
  %4 = alloca i32, align 4
  store ptr %0, ptr %3, align 8
  store i32 %1, ptr %4, align 4
  %5 = load i32, ptr %4, align 4
  ret i32 %5
}

; Function Attrs: mustprogress nounwind uwtable
define linkonce_odr hidden noundef ptr @_ZNK11ThreadsList7threadsEv(ptr noundef nonnull align 8 dereferenceable(32) %0) #1 comdat align 2 {
  %2 = alloca ptr, align 8
  store ptr %0, ptr %2, align 8
  %3 = load ptr, ptr %2, align 8
  %4 = getelementptr inbounds %class.ThreadsList, ptr %3, i32 0, i32 3
  %5 = load ptr, ptr %4, align 8
  ret ptr %5
}

; Function Attrs: mustprogress nounwind uwtable
define linkonce_odr hidden void @_ZN8Prefetch4readEPKvl(ptr noundef %0, i64 noundef %1) #1 comdat align 2 {
  %3 = alloca ptr, align 8
  %4 = alloca i64, align 8
  store ptr %0, ptr %3, align 8
  store i64 %1, ptr %4, align 8
  %5 = load ptr, ptr %3, align 8
  %6 = load i64, ptr %4, align 8
  call void asm sideeffect "prefetcht0 ($0,$1,1)", "r,r,~{dirflag},~{fpsr},~{flags}"(ptr %5, i64 %6) #10, !srcloc !18
  ret void
}

; Function Attrs: mustprogress nounwind uwtable
define linkonce_odr hidden void @_ZNK11ThreadsList8Iterator22assert_dereferenceableEv(ptr noundef nonnull align 8 dereferenceable(8) %0) #1 comdat align 2 {
  %2 = alloca ptr, align 8
  store ptr %0, ptr %2, align 8
  ret void
}

; Function Attrs: mustprogress nounwind uwtable
define linkonce_odr hidden void @_ZNK11ThreadsList8Iterator19assert_not_singularEv(ptr noundef nonnull align 8 dereferenceable(8) %0) #1 comdat align 2 {
  %2 = alloca ptr, align 8
  store ptr %0, ptr %2, align 8
  ret void
}

; Function Attrs: mustprogress nounwind uwtable
define linkonce_odr hidden noundef zeroext i1 @_ZNK11ThreadsList8IteratoreqES0_(ptr noundef nonnull align 8 dereferenceable(8) %0, ptr %1) #1 comdat align 2 {
  %3 = alloca %"class.ThreadsList::Iterator", align 8
  %4 = alloca ptr, align 8
  %5 = alloca %"class.ThreadsList::Iterator", align 8
  %6 = getelementptr inbounds %"class.ThreadsList::Iterator", ptr %3, i32 0, i32 0
  store ptr %1, ptr %6, align 8
  store ptr %0, ptr %4, align 8
  %7 = load ptr, ptr %4, align 8
  call void @_ZNK11ThreadsList8Iterator19assert_not_singularEv(ptr noundef nonnull align 8 dereferenceable(8) %7)
  call void @llvm.memcpy.p0.p0.i64(ptr align 8 %5, ptr align 8 %3, i64 8, i1 false)
  %8 = getelementptr inbounds %"class.ThreadsList::Iterator", ptr %5, i32 0, i32 0
  %9 = load ptr, ptr %8, align 8
  call void @_ZNK11ThreadsList8Iterator16assert_same_listES0_(ptr noundef nonnull align 8 dereferenceable(8) %7, ptr %9)
  %10 = getelementptr inbounds %"class.ThreadsList::Iterator", ptr %7, i32 0, i32 0
  %11 = load ptr, ptr %10, align 8
  %12 = getelementptr inbounds %"class.ThreadsList::Iterator", ptr %3, i32 0, i32 0
  %13 = load ptr, ptr %12, align 8
  %14 = icmp eq ptr %11, %13
  ret i1 %14
}

; Function Attrs: mustprogress nounwind uwtable
define linkonce_odr hidden noundef i32 @_ZNK11ThreadsList6lengthEv(ptr noundef nonnull align 8 dereferenceable(32) %0) #1 comdat align 2 {
  %2 = alloca ptr, align 8
  store ptr %0, ptr %2, align 8
  %3 = load ptr, ptr %2, align 8
  %4 = getelementptr inbounds %class.ThreadsList, ptr %3, i32 0, i32 1
  %5 = load i32, ptr %4, align 4
  ret i32 %5
}

; Function Attrs: mustprogress nounwind uwtable
define linkonce_odr hidden void @_ZN11ThreadsList8IteratorC2EPS_j(ptr noundef nonnull align 8 dereferenceable(8) %0, ptr noundef %1, i32 noundef %2) unnamed_addr #1 comdat align 2 {
  %4 = alloca ptr, align 8
  %5 = alloca ptr, align 8
  %6 = alloca i32, align 4
  store ptr %0, ptr %4, align 8
  store ptr %1, ptr %5, align 8
  store i32 %2, ptr %6, align 4
  %7 = load ptr, ptr %4, align 8
  %8 = getelementptr inbounds %"class.ThreadsList::Iterator", ptr %7, i32 0, i32 0
  %9 = load ptr, ptr %5, align 8
  %10 = call noundef ptr @_ZNK11ThreadsList7threadsEv(ptr noundef nonnull align 8 dereferenceable(32) %9)
  %11 = load ptr, ptr %5, align 8
  %12 = load i32, ptr %6, align 4
  %13 = call noundef i32 @_ZN11ThreadsList8Iterator11check_indexEPS_j(ptr noundef %11, i32 noundef %12)
  %14 = zext i32 %13 to i64
  %15 = getelementptr inbounds ptr, ptr %10, i64 %14
  store ptr %15, ptr %8, align 8
  ret void
}

; Function Attrs: mustprogress nounwind uwtable
define linkonce_odr hidden noundef nonnull align 8 dereferenceable(8) ptr @_ZN11ThreadsList8IteratorppEv(ptr noundef nonnull align 8 dereferenceable(8) %0) #1 comdat align 2 {
  %2 = alloca ptr, align 8
  store ptr %0, ptr %2, align 8
  %3 = load ptr, ptr %2, align 8
  call void @_ZNK11ThreadsList8Iterator19assert_not_singularEv(ptr noundef nonnull align 8 dereferenceable(8) %3)
  call void @_ZNK11ThreadsList8Iterator22assert_dereferenceableEv(ptr noundef nonnull align 8 dereferenceable(8) %3)
  %4 = getelementptr inbounds %"class.ThreadsList::Iterator", ptr %3, i32 0, i32 0
  %5 = load ptr, ptr %4, align 8
  %6 = getelementptr inbounds ptr, ptr %5, i32 1
  store ptr %6, ptr %4, align 8
  ret ptr %3
}

; Function Attrs: mustprogress nounwind uwtable
define linkonce_odr hidden noundef ptr @_ZNK11ThreadsList8IteratordeEv(ptr noundef nonnull align 8 dereferenceable(8) %0) #1 comdat align 2 {
  %2 = alloca ptr, align 8
  store ptr %0, ptr %2, align 8
  %3 = load ptr, ptr %2, align 8
  call void @_ZNK11ThreadsList8Iterator19assert_not_singularEv(ptr noundef nonnull align 8 dereferenceable(8) %3)
  call void @_ZNK11ThreadsList8Iterator22assert_dereferenceableEv(ptr noundef nonnull align 8 dereferenceable(8) %3)
  %4 = getelementptr inbounds %"class.ThreadsList::Iterator", ptr %3, i32 0, i32 0
  %5 = load ptr, ptr %4, align 8
  %6 = load i64, ptr @PrefetchScanIntervalInBytes, align 8
  call void @_ZN8Prefetch4readEPKvl(ptr noundef %5, i64 noundef %6)
  %7 = getelementptr inbounds %"class.ThreadsList::Iterator", ptr %3, i32 0, i32 0
  %8 = load ptr, ptr %7, align 8
  %9 = load ptr, ptr %8, align 8
  ret ptr %9
}

; Function Attrs: mustprogress nounwind uwtable
define linkonce_odr hidden noundef zeroext i1 @_ZNK11ThreadsList8IteratorneES0_(ptr noundef nonnull align 8 dereferenceable(8) %0, ptr %1) #1 comdat align 2 {
  %3 = alloca %"class.ThreadsList::Iterator", align 8
  %4 = alloca ptr, align 8
  %5 = alloca %"class.ThreadsList::Iterator", align 8
  %6 = getelementptr inbounds %"class.ThreadsList::Iterator", ptr %3, i32 0, i32 0
  store ptr %1, ptr %6, align 8
  store ptr %0, ptr %4, align 8
  %7 = load ptr, ptr %4, align 8
  call void @llvm.memcpy.p0.p0.i64(ptr align 8 %5, ptr align 8 %3, i64 8, i1 false)
  %8 = getelementptr inbounds %"class.ThreadsList::Iterator", ptr %5, i32 0, i32 0
  %9 = load ptr, ptr %8, align 8
  %10 = call noundef zeroext i1 @_ZNK11ThreadsList8IteratoreqES0_(ptr noundef nonnull align 8 dereferenceable(8) %7, ptr %9)
  %11 = xor i1 %10, true
  ret i1 %11
}

; Function Attrs: mustprogress nounwind uwtable
define linkonce_odr hidden ptr @_ZN11ThreadsList3endEv(ptr noundef nonnull align 8 dereferenceable(32) %0) #1 comdat align 2 {
  %2 = alloca %"class.ThreadsList::Iterator", align 8
  %3 = alloca ptr, align 8
  store ptr %0, ptr %3, align 8
  %4 = load ptr, ptr %3, align 8
  %5 = call noundef i32 @_ZNK11ThreadsList6lengthEv(ptr noundef nonnull align 8 dereferenceable(32) %4)
  call void @_ZN11ThreadsList8IteratorC2EPS_j(ptr noundef nonnull align 8 dereferenceable(8) %2, ptr noundef %4, i32 noundef %5)
  %6 = getelementptr inbounds %"class.ThreadsList::Iterator", ptr %2, i32 0, i32 0
  %7 = load ptr, ptr %6, align 8
  ret ptr %7
}

; Function Attrs: mustprogress nounwind uwtable
define linkonce_odr hidden ptr @_ZN11ThreadsList5beginEv(ptr noundef nonnull align 8 dereferenceable(32) %0) #1 comdat align 2 {
  %2 = alloca %"class.ThreadsList::Iterator", align 8
  %3 = alloca ptr, align 8
  store ptr %0, ptr %3, align 8
  %4 = load ptr, ptr %3, align 8
  call void @_ZN11ThreadsList8IteratorC2EPS_j(ptr noundef nonnull align 8 dereferenceable(8) %2, ptr noundef %4, i32 noundef 0)
  %5 = getelementptr inbounds %"class.ThreadsList::Iterator", ptr %2, i32 0, i32 0
  %6 = load ptr, ptr %5, align 8
  ret ptr %6
}

; Function Attrs: mustprogress nounwind uwtable
define hidden noundef ptr @_ZN7Threads32owning_thread_from_monitor_ownerEP11ThreadsListPh(ptr noundef %0, ptr noundef %1) #1 align 2 {
  %3 = alloca ptr, align 8
  %4 = alloca ptr, align 8
  %5 = alloca ptr, align 8
  %6 = alloca ptr, align 8
  %7 = alloca %"class.ThreadsList::Iterator", align 8
  %8 = alloca %"class.ThreadsList::Iterator", align 8
  %9 = alloca %"class.ThreadsList::Iterator", align 8
  %10 = alloca ptr, align 8
  %11 = alloca ptr, align 8
  %12 = alloca ptr, align 8
  %13 = alloca %"class.ThreadsList::Iterator", align 8
  %14 = alloca %"class.ThreadsList::Iterator", align 8
  %15 = alloca %"class.ThreadsList::Iterator", align 8
  %16 = alloca ptr, align 8
  store ptr %0, ptr %4, align 8
  store ptr %1, ptr %5, align 8
  %17 = load ptr, ptr %5, align 8
  %18 = icmp eq ptr %17, null
  br i1 %18, label %19, label %20

19:                                               ; preds = %2
  store ptr null, ptr %3, align 8
  br label %70

20:                                               ; preds = %2
  %21 = load ptr, ptr %4, align 8
  store ptr %21, ptr %6, align 8
  %22 = load ptr, ptr %6, align 8
  %23 = call ptr @_ZN11ThreadsList5beginEv(ptr noundef nonnull align 8 dereferenceable(32) %22)
  %24 = getelementptr inbounds %"class.ThreadsList::Iterator", ptr %7, i32 0, i32 0
  store ptr %23, ptr %24, align 8
  %25 = load ptr, ptr %6, align 8
  %26 = call ptr @_ZN11ThreadsList3endEv(ptr noundef nonnull align 8 dereferenceable(32) %25)
  %27 = getelementptr inbounds %"class.ThreadsList::Iterator", ptr %8, i32 0, i32 0
  store ptr %26, ptr %27, align 8
  br label %28

28:                                               ; preds = %40, %20
  call void @llvm.memcpy.p0.p0.i64(ptr align 8 %9, ptr align 8 %8, i64 8, i1 false)
  %29 = getelementptr inbounds %"class.ThreadsList::Iterator", ptr %9, i32 0, i32 0
  %30 = load ptr, ptr %29, align 8
  %31 = call noundef zeroext i1 @_ZNK11ThreadsList8IteratorneES0_(ptr noundef nonnull align 8 dereferenceable(8) %7, ptr %30)
  br i1 %31, label %32, label %42

32:                                               ; preds = %28
  %33 = call noundef ptr @_ZNK11ThreadsList8IteratordeEv(ptr noundef nonnull align 8 dereferenceable(8) %7)
  store ptr %33, ptr %10, align 8
  %34 = load ptr, ptr %5, align 8
  %35 = load ptr, ptr %10, align 8
  %36 = icmp eq ptr %34, %35
  br i1 %36, label %37, label %39

37:                                               ; preds = %32
  %38 = load ptr, ptr %10, align 8
  store ptr %38, ptr %3, align 8
  br label %70

39:                                               ; preds = %32
  br label %40

40:                                               ; preds = %39
  %41 = call noundef nonnull align 8 dereferenceable(8) ptr @_ZN11ThreadsList8IteratorppEv(ptr noundef nonnull align 8 dereferenceable(8) %7)
  br label %28

42:                                               ; preds = %28
  %43 = load i32, ptr @LockingMode, align 4
  %44 = icmp eq i32 %43, 0
  br i1 %44, label %45, label %46

45:                                               ; preds = %42
  store ptr null, ptr %3, align 8
  br label %70

46:                                               ; preds = %42
  store ptr null, ptr %11, align 8
  %47 = load ptr, ptr %4, align 8
  store ptr %47, ptr %12, align 8
  %48 = load ptr, ptr %12, align 8
  %49 = call ptr @_ZN11ThreadsList5beginEv(ptr noundef nonnull align 8 dereferenceable(32) %48)
  %50 = getelementptr inbounds %"class.ThreadsList::Iterator", ptr %13, i32 0, i32 0
  store ptr %49, ptr %50, align 8
  %51 = load ptr, ptr %12, align 8
  %52 = call ptr @_ZN11ThreadsList3endEv(ptr noundef nonnull align 8 dereferenceable(32) %51)
  %53 = getelementptr inbounds %"class.ThreadsList::Iterator", ptr %14, i32 0, i32 0
  store ptr %52, ptr %53, align 8
  br label %54

54:                                               ; preds = %66, %46
  call void @llvm.memcpy.p0.p0.i64(ptr align 8 %15, ptr align 8 %14, i64 8, i1 false)
  %55 = getelementptr inbounds %"class.ThreadsList::Iterator", ptr %15, i32 0, i32 0
  %56 = load ptr, ptr %55, align 8
  %57 = call noundef zeroext i1 @_ZNK11ThreadsList8IteratorneES0_(ptr noundef nonnull align 8 dereferenceable(8) %13, ptr %56)
  br i1 %57, label %58, label %68

58:                                               ; preds = %54
  %59 = call noundef ptr @_ZNK11ThreadsList8IteratordeEv(ptr noundef nonnull align 8 dereferenceable(8) %13)
  store ptr %59, ptr %16, align 8
  %60 = load ptr, ptr %16, align 8
  %61 = load ptr, ptr %5, align 8
  %62 = call noundef zeroext i1 @_ZNK10JavaThread13is_lock_ownedEPh(ptr noundef nonnull align 8 dereferenceable(1800) %60, ptr noundef %61)
  br i1 %62, label %63, label %65

63:                                               ; preds = %58
  %64 = load ptr, ptr %16, align 8
  store ptr %64, ptr %11, align 8
  br label %68

65:                                               ; preds = %58
  br label %66

66:                                               ; preds = %65
  %67 = call noundef nonnull align 8 dereferenceable(8) ptr @_ZN11ThreadsList8IteratorppEv(ptr noundef nonnull align 8 dereferenceable(8) %13)
  br label %54

68:                                               ; preds = %63, %54
  %69 = load ptr, ptr %11, align 8
  store ptr %69, ptr %3, align 8
  br label %70

70:                                               ; preds = %68, %45, %37, %19
  %71 = load ptr, ptr %3, align 8
  ret ptr %71
}