; Function Attrs: mustprogress nounwind uwtable
define hidden noundef ptr @_ZN7Threads32owning_thread_from_monitor_ownerEP11ThreadsListPh(ptr nocapture noundef readonly %0, ptr noundef %1) local_unnamed_addr #0 align 2 {
  %3 = icmp eq ptr %1, null
  br i1 %3, label %.loopexit, label %4

4:                                                ; preds = %2
  %5 = getelementptr inbounds i8, ptr %0, i64 16
  %6 = load ptr, ptr %5, align 8
  %7 = getelementptr inbounds i8, ptr %0, i64 4
  %8 = load i32, ptr %7, align 4
  %9 = zext i32 %8 to i64
  %10 = getelementptr inbounds ptr, ptr %6, i64 %9
  %.not30 = icmp eq i32 %8, 0
  br i1 %.not30, label %._crit_edge, label %.lr.ph

11:                                               ; preds = %.lr.ph
  %12 = getelementptr inbounds i8, ptr %.sroa.024.031, i64 8
  %.not = icmp eq ptr %12, %10
  br i1 %.not, label %._crit_edge, label %.lr.ph

.lr.ph:                                           ; preds = %4, %11
  %.sroa.024.031 = phi ptr [ %12, %11 ], [ %6, %4 ]
  %13 = load i64, ptr @PrefetchScanIntervalInBytes, align 8
  tail call void asm sideeffect "prefetcht0 ($0,$1,1)", "r,r,~{dirflag},~{fpsr},~{flags}"(ptr %.sroa.024.031, i64 %13) #15, !srcloc !9
  %14 = load ptr, ptr %.sroa.024.031, align 8
  %15 = icmp eq ptr %14, %1
  br i1 %15, label %.loopexit, label %11

._crit_edge:                                      ; preds = %11, %4
  %16 = load i32, ptr @LockingMode, align 4
  %17 = icmp eq i32 %16, 0
  br i1 %17, label %.loopexit, label %18

18:                                               ; preds = %._crit_edge
  %19 = load ptr, ptr %5, align 8
  %20 = load i32, ptr %7, align 4
  %21 = zext i32 %20 to i64
  %22 = getelementptr inbounds ptr, ptr %19, i64 %21
  %.not2832 = icmp eq i32 %20, 0
  br i1 %.not2832, label %.loopexit, label %.lr.ph35

23:                                               ; preds = %.lr.ph35
  %24 = getelementptr inbounds i8, ptr %.sroa.0.033, i64 8
  %.not28 = icmp eq ptr %24, %22
  br i1 %.not28, label %.loopexit, label %.lr.ph35

.lr.ph35:                                         ; preds = %18, %23
  %.sroa.0.033 = phi ptr [ %24, %23 ], [ %19, %18 ]
  %25 = load i64, ptr @PrefetchScanIntervalInBytes, align 8
  tail call void asm sideeffect "prefetcht0 ($0,$1,1)", "r,r,~{dirflag},~{fpsr},~{flags}"(ptr %.sroa.0.033, i64 %25) #15, !srcloc !9
  %26 = load ptr, ptr %.sroa.0.033, align 8
  %27 = tail call noundef zeroext i1 @_ZNK10JavaThread13is_lock_ownedEPh(ptr noundef nonnull align 8 dereferenceable(1800) %26, ptr noundef nonnull %1) #15
  br i1 %27, label %.loopexit, label %23

.loopexit:                                        ; preds = %.lr.ph, %.lr.ph35, %23, %18, %._crit_edge, %2
  %.0 = phi ptr [ null, %2 ], [ null, %._crit_edge ], [ null, %18 ], [ %26, %.lr.ph35 ], [ null, %23 ], [ %14, %.lr.ph ]
  ret ptr %.0
}